; Function Attrs: mustprogress uwtable
define void @_ZN6icu_7514CjkBreakEngine12loadHiraganaER10UErrorCode(ptr nocapture noundef nonnull readonly align 8 dereferenceable(928) %this, ptr noundef nonnull align 4 dereferenceable(4) %error) local_unnamed_addr #0 align 2 personality ptr @__gxx_personality_v0 {
entry:
  %hiraganaWordSet = alloca %"class.icu_75::UnicodeSet", align 8
  %ref.tmp = alloca %"class.icu_75::UnicodeString", align 8
  %iterator = alloca %"class.icu_75::UnicodeSetIterator", align 8
  %ref.tmp8 = alloca %"class.icu_75::UnicodeString", align 8
  call void @_ZN6icu_7513UnicodeStringC1EPKDs(ptr noundef nonnull align 8 dereferenceable(64) %ref.tmp, ptr noundef nonnull @.str.15)
  invoke void @_ZN6icu_7510UnicodeSetC1ERKNS_13UnicodeStringER10UErrorCode(ptr noundef nonnull align 8 dereferenceable(200) %hiraganaWordSet, ptr noundef nonnull align 8 dereferenceable(64) %ref.tmp, ptr noundef nonnull align 4 dereferenceable(4) %error)
          to label %invoke.cont unwind label %lpad

invoke.cont:                                      ; preds = %entry
  call void @_ZN6icu_7513UnicodeStringD1Ev(ptr noundef nonnull align 8 dereferenceable(64) %ref.tmp) #9
  %call = invoke noundef nonnull align 8 dereferenceable(200) ptr @_ZN6icu_7510UnicodeSet7compactEv(ptr noundef nonnull align 8 dereferenceable(200) %hiraganaWordSet)
          to label %invoke.cont3 unwind label %lpad2

invoke.cont3:                                     ; preds = %invoke.cont
  invoke void @_ZN6icu_7518UnicodeSetIteratorC1ERKNS_10UnicodeSetE(ptr noundef nonnull align 8 dereferenceable(64) %iterator, ptr noundef nonnull align 8 dereferenceable(200) %hiraganaWordSet)
          to label %while.cond.preheader unwind label %lpad2

while.cond.preheader:                             ; preds = %invoke.cont3
  %codepoint.i = getelementptr inbounds i8, ptr %iterator, i64 8
  %fSkipSet = getelementptr inbounds i8, ptr %this, i64 840
  br label %while.cond

while.cond:                                       ; preds = %while.cond.preheader, %invoke.cont13
  %call7 = invoke noundef signext i8 @_ZN6icu_7518UnicodeSetIterator4nextEv(ptr noundef nonnull align 8 dereferenceable(64) %iterator)
          to label %invoke.cont6 unwind label %lpad5

invoke.cont6:                                     ; preds = %while.cond
  %tobool.not = icmp eq i8 %call7, 0
  br i1 %tobool.not, label %while.end, label %while.body

while.body:                                       ; preds = %invoke.cont6
  %0 = load i32, ptr %codepoint.i, align 8
  invoke void @_ZN6icu_7513UnicodeStringC1Ei(ptr noundef nonnull align 8 dereferenceable(64) %ref.tmp8, i32 noundef %0)
          to label %invoke.cont11 unwind label %lpad5

invoke.cont11:                                    ; preds = %while.body
  %1 = load ptr, ptr %fSkipSet, align 8
  %call.i = call noundef ptr @_ZN6icu_757UMemorynwEm(i64 noundef 64) #9
  %new.isnull.i = icmp eq ptr %call.i, null
  br i1 %new.isnull.i, label %new.cont.i, label %new.notnull.i

new.notnull.i:                                    ; preds = %invoke.cont11
  invoke void @_ZN6icu_7513UnicodeStringC1ERKS0_(ptr noundef nonnull align 8 dereferenceable(64) %call.i, ptr noundef nonnull align 8 dereferenceable(64) %ref.tmp8)
          to label %new.cont.i unwind label %lpad.i

new.cont.i:                                       ; preds = %new.notnull.i, %invoke.cont11
  %call2.i5 = invoke noundef i32 @uhash_puti_75(ptr noundef %1, ptr noundef %call.i, i32 noundef 1, ptr noundef nonnull %error)
          to label %invoke.cont13 unwind label %lpad12

lpad.i:                                           ; preds = %new.notnull.i
  %2 = landingpad { ptr, i32 }
          cleanup
  call void @_ZN6icu_757UMemorydlEPv(ptr noundef nonnull %call.i) #9
  br label %lpad12.body

invoke.cont13:                                    ; preds = %new.cont.i
  call void @_ZN6icu_7513UnicodeStringD1Ev(ptr noundef nonnull align 8 dereferenceable(64) %ref.tmp8) #9
  br label %while.cond, !llvm.loop !41

lpad:                                             ; preds = %entry
  %3 = landingpad { ptr, i32 }
          cleanup
  call void @_ZN6icu_7513UnicodeStringD1Ev(ptr noundef nonnull align 8 dereferenceable(64) %ref.tmp) #9
  br label %eh.resume

lpad2:                                            ; preds = %invoke.cont3, %invoke.cont
  %4 = landingpad { ptr, i32 }
          cleanup
  br label %ehcleanup15

lpad5:                                            ; preds = %while.body, %while.cond
  %5 = landingpad { ptr, i32 }
          cleanup
  br label %ehcleanup

lpad12:                                           ; preds = %new.cont.i
  %6 = landingpad { ptr, i32 }
          cleanup
  br label %lpad12.body

lpad12.body:                                      ; preds = %lpad.i, %lpad12
  %eh.lpad-body = phi { ptr, i32 } [ %6, %lpad12 ], [ %2, %lpad.i ]
  call void @_ZN6icu_7513UnicodeStringD1Ev(ptr noundef nonnull align 8 dereferenceable(64) %ref.tmp8) #9
  br label %ehcleanup

while.end:                                        ; preds = %invoke.cont6
  call void @_ZN6icu_7518UnicodeSetIteratorD1Ev(ptr noundef nonnull align 8 dereferenceable(64) %iterator) #9
  call void @_ZN6icu_7510UnicodeSetD1Ev(ptr noundef nonnull align 8 dereferenceable(200) %hiraganaWordSet) #9
  ret void

ehcleanup:                                        ; preds = %lpad12.body, %lpad5
  %.pn = phi { ptr, i32 } [ %eh.lpad-body, %lpad12.body ], [ %5, %lpad5 ]
  call void @_ZN6icu_7518UnicodeSetIteratorD1Ev(ptr noundef nonnull align 8 dereferenceable(64) %iterator) #9
  br label %ehcleanup15

ehcleanup15:                                      ; preds = %ehcleanup, %lpad2
  %.pn.pn = phi { ptr, i32 } [ %.pn, %ehcleanup ], [ %4, %lpad2 ]
  call void @_ZN6icu_7510UnicodeSetD1Ev(ptr noundef nonnull align 8 dereferenceable(200) %hiraganaWordSet) #9
  br label %eh.resume

eh.resume:                                        ; preds = %ehcleanup15, %lpad
  %.pn.pn.pn = phi { ptr, i32 } [ %.pn.pn, %ehcleanup15 ], [ %3, %lpad ]
  resume { ptr, i32 } %.pn.pn.pn
}